target datalayout = "e-m:e-p270:32:32-p271:32:32-p272:64:64-i64:64-i128:128-f80:128-n8:16:32:64-S128"
target triple = "x86_64-pc-linux-gnu"

; Function Attrs: mustprogress uwtable
define i32 @zmq_proxy(ptr noundef %0, ptr noundef %1, ptr noundef %2) #1 {
  %4 = alloca i32, align 4
  %5 = alloca ptr, align 8
  %6 = alloca ptr, align 8
  %7 = alloca ptr, align 8
  store ptr %0, ptr %5, align 8, !tbaa !12
  store ptr %1, ptr %6, align 8, !tbaa !12
  store ptr %2, ptr %7, align 8, !tbaa !12
  %8 = load ptr, ptr %5, align 8, !tbaa !12
  %9 = icmp ne ptr %8, null
  br i1 %9, label %10, label %13

10:                                               ; preds = %3
  %11 = load ptr, ptr %6, align 8, !tbaa !12
  %12 = icmp ne ptr %11, null
  br i1 %12, label %15, label %13

13:                                               ; preds = %10, %3
  %14 = call ptr @__errno_location() #19
  store i32 14, ptr %14, align 4, !tbaa !8
  store i32 -1, ptr %4, align 4
  br label %20

15:                                               ; preds = %10
  %16 = load ptr, ptr %5, align 8, !tbaa !12
  %17 = load ptr, ptr %6, align 8, !tbaa !12
  %18 = load ptr, ptr %7, align 8, !tbaa !12
  %19 = call noundef i32 @_ZN3zmq5proxyEPNS_13socket_base_tES1_S1_(ptr noundef %16, ptr noundef %17, ptr noundef %18)
  store i32 %19, ptr %4, align 4
  br label %20

20:                                               ; preds = %15, %13
  %21 = load i32, ptr %4, align 4
  ret i32 %21
}