; Function Attrs: mustprogress uwtable
define noundef i32 @zmq_proxy(ptr noundef %0, ptr noundef %1, ptr noundef %2) local_unnamed_addr #1 {
  %4 = icmp ne ptr %0, null
  %5 = icmp ne ptr %1, null
  %or.cond = and i1 %4, %5
  br i1 %or.cond, label %8, label %6

6:                                                ; preds = %3
  %7 = tail call ptr @__errno_location() #20
  store i32 14, ptr %7, align 4, !tbaa !3
  br label %10

8:                                                ; preds = %3
  %9 = tail call noundef i32 @_ZN3zmq5proxyEPNS_13socket_base_tES1_S1_(ptr noundef nonnull %0, ptr noundef nonnull %1, ptr noundef %2)
  br label %10

10:                                               ; preds = %8, %6
  %.0 = phi i32 [ %9, %8 ], [ -1, %6 ]
  ret i32 %.0
}